target datalayout = "e-m:e-p270:32:32-p271:32:32-p272:64:64-i64:64-i128:128-f80:128-n8:16:32:64-S128"
target triple = "x86_64-pc-linux-gnu"

%struct.SDL_Surface = type { i32, i32, i32, i32, i32, ptr, i32, ptr, i32, i32, ptr, i32, ptr, i32, ptr, i32, %struct.SDL_Rect, %struct.SDL_BlitMap }
%struct.SDL_Rect = type { i32, i32, i32, i32 }
%struct.SDL_BlitMap = type { i32, ptr, ptr, %struct.SDL_BlitInfo, i32, i32 }
%struct.SDL_BlitInfo = type { ptr, ptr, i32, i32, i32, i32, ptr, ptr, i32, i32, i32, i32, ptr, ptr, ptr, ptr, ptr, ptr, i32, i32, i8, i8, i8, i8 }

; Function Attrs: nounwind uwtable
define hidden ptr @SDL_CreateCursor_REAL(ptr noundef %0, ptr noundef %1, i32 noundef %2, i32 noundef %3, i32 noundef %4, i32 noundef %5) #0 {
  %7 = alloca ptr, align 8
  %8 = alloca ptr, align 8
  %9 = alloca ptr, align 8
  %10 = alloca i32, align 4
  %11 = alloca i32, align 4
  %12 = alloca i32, align 4
  %13 = alloca i32, align 4
  %14 = alloca ptr, align 8
  %15 = alloca ptr, align 8
  %16 = alloca i32, align 4
  %17 = alloca i32, align 4
  %18 = alloca ptr, align 8
  %19 = alloca i8, align 1
  %20 = alloca i8, align 1
  %21 = alloca i32, align 4
  %22 = alloca i32, align 4
  %23 = alloca i32, align 4
  %24 = alloca i32, align 4
  %25 = alloca i32, align 4
  store ptr %0, ptr %8, align 8
  store ptr %1, ptr %9, align 8
  store i32 %2, ptr %10, align 4
  store i32 %3, ptr %11, align 4
  store i32 %4, ptr %12, align 4
  store i32 %5, ptr %13, align 4
  call void @llvm.lifetime.start.p0(i64 8, ptr %14) #7
  call void @llvm.lifetime.start.p0(i64 8, ptr %15) #7
  call void @llvm.lifetime.start.p0(i64 4, ptr %16) #7
  call void @llvm.lifetime.start.p0(i64 4, ptr %17) #7
  call void @llvm.lifetime.start.p0(i64 8, ptr %18) #7
  call void @llvm.lifetime.start.p0(i64 1, ptr %19) #7
  store i8 0, ptr %19, align 1
  call void @llvm.lifetime.start.p0(i64 1, ptr %20) #7
  store i8 0, ptr %20, align 1
  call void @llvm.lifetime.start.p0(i64 4, ptr %21) #7
  store i32 -16777216, ptr %21, align 4
  call void @llvm.lifetime.start.p0(i64 4, ptr %22) #7
  store i32 -1, ptr %22, align 4
  call void @llvm.lifetime.start.p0(i64 4, ptr %23) #7
  store i32 0, ptr %23, align 4
  call void @llvm.lifetime.start.p0(i64 4, ptr %24) #7
  store i32 -16777216, ptr %24, align 4
  %26 = load i32, ptr %10, align 4
  %27 = add nsw i32 %26, 7
  %28 = and i32 %27, -8
  store i32 %28, ptr %10, align 4
  %29 = load i32, ptr %10, align 4
  %30 = load i32, ptr %11, align 4
  %31 = call ptr @SDL_CreateSurface_REAL(i32 noundef %29, i32 noundef %30, i32 noundef 372645892)
  store ptr %31, ptr %14, align 8
  %32 = load ptr, ptr %14, align 8
  %33 = icmp ne ptr %32, null
  br i1 %33, label %35, label %34

34:                                               ; preds = %6
  store ptr null, ptr %7, align 8
  store i32 1, ptr %25, align 4
  br label %110

35:                                               ; preds = %6
  store i32 0, ptr %17, align 4
  br label %36

36:                                               ; preds = %100, %35
  %37 = load i32, ptr %17, align 4
  %38 = load i32, ptr %11, align 4
  %39 = icmp slt i32 %37, %38
  br i1 %39, label %40, label %103

40:                                               ; preds = %36
  %41 = load ptr, ptr %14, align 8
  %42 = getelementptr inbounds nuw %struct.SDL_Surface, ptr %41, i32 0, i32 5
  %43 = load ptr, ptr %42, align 8
  %44 = load i32, ptr %17, align 4
  %45 = load ptr, ptr %14, align 8
  %46 = getelementptr inbounds nuw %struct.SDL_Surface, ptr %45, i32 0, i32 4
  %47 = load i32, ptr %46, align 8
  %48 = mul nsw i32 %44, %47
  %49 = sext i32 %48 to i64
  %50 = getelementptr inbounds i8, ptr %43, i64 %49
  store ptr %50, ptr %18, align 8
  store i32 0, ptr %16, align 4
  br label %51

51:                                               ; preds = %96, %40
  %52 = load i32, ptr %16, align 4
  %53 = load i32, ptr %10, align 4
  %54 = icmp slt i32 %52, %53
  br i1 %54, label %55, label %99

55:                                               ; preds = %51
  %56 = load i32, ptr %16, align 4
  %57 = srem i32 %56, 8
  %58 = icmp eq i32 %57, 0
  br i1 %58, label %59, label %66

59:                                               ; preds = %55
  %60 = load ptr, ptr %8, align 8
  %61 = getelementptr inbounds nuw i8, ptr %60, i32 1
  store ptr %61, ptr %8, align 8
  %62 = load i8, ptr %60, align 1
  store i8 %62, ptr %19, align 1
  %63 = load ptr, ptr %9, align 8
  %64 = getelementptr inbounds nuw i8, ptr %63, i32 1
  store ptr %64, ptr %9, align 8
  %65 = load i8, ptr %63, align 1
  store i8 %65, ptr %20, align 1
  br label %66

66:                                               ; preds = %59, %55
  %67 = load i8, ptr %20, align 1
  %68 = zext i8 %67 to i32
  %69 = and i32 %68, 128
  %70 = icmp ne i32 %69, 0
  br i1 %70, label %71, label %79

71:                                               ; preds = %66
  %72 = load i8, ptr %19, align 1
  %73 = zext i8 %72 to i32
  %74 = and i32 %73, 128
  %75 = icmp ne i32 %74, 0
  %76 = select i1 %75, i32 -16777216, i32 -1
  %77 = load ptr, ptr %18, align 8
  %78 = getelementptr inbounds nuw i32, ptr %77, i32 1
  store ptr %78, ptr %18, align 8
  store i32 %76, ptr %77, align 4
  br label %87

79:                                               ; preds = %66
  %80 = load i8, ptr %19, align 1
  %81 = zext i8 %80 to i32
  %82 = and i32 %81, 128
  %83 = icmp ne i32 %82, 0
  %84 = select i1 %83, i32 -16777216, i32 0
  %85 = load ptr, ptr %18, align 8
  %86 = getelementptr inbounds nuw i32, ptr %85, i32 1
  store ptr %86, ptr %18, align 8
  store i32 %84, ptr %85, align 4
  br label %87

87:                                               ; preds = %79, %71
  %88 = load i8, ptr %19, align 1
  %89 = zext i8 %88 to i32
  %90 = shl i32 %89, 1
  %91 = trunc i32 %90 to i8
  store i8 %91, ptr %19, align 1
  %92 = load i8, ptr %20, align 1
  %93 = zext i8 %92 to i32
  %94 = shl i32 %93, 1
  %95 = trunc i32 %94 to i8
  store i8 %95, ptr %20, align 1
  br label %96

96:                                               ; preds = %87
  %97 = load i32, ptr %16, align 4
  %98 = add nsw i32 %97, 1
  store i32 %98, ptr %16, align 4
  br label %51, !llvm.loop !16

99:                                               ; preds = %51
  br label %100

100:                                              ; preds = %99
  %101 = load i32, ptr %17, align 4
  %102 = add nsw i32 %101, 1
  store i32 %102, ptr %17, align 4
  br label %36, !llvm.loop !17

103:                                              ; preds = %36
  %104 = load ptr, ptr %14, align 8
  %105 = load i32, ptr %12, align 4
  %106 = load i32, ptr %13, align 4
  %107 = call ptr @SDL_CreateColorCursor_REAL(ptr noundef %104, i32 noundef %105, i32 noundef %106)
  store ptr %107, ptr %15, align 8
  %108 = load ptr, ptr %14, align 8
  call void @SDL_DestroySurface_REAL(ptr noundef %108)
  %109 = load ptr, ptr %15, align 8
  store ptr %109, ptr %7, align 8
  store i32 1, ptr %25, align 4
  br label %110

110:                                              ; preds = %103, %34
  call void @llvm.lifetime.end.p0(i64 4, ptr %24) #7
  call void @llvm.lifetime.end.p0(i64 4, ptr %23) #7
  call void @llvm.lifetime.end.p0(i64 4, ptr %22) #7
  call void @llvm.lifetime.end.p0(i64 4, ptr %21) #7
  call void @llvm.lifetime.end.p0(i64 1, ptr %20) #7
  call void @llvm.lifetime.end.p0(i64 1, ptr %19) #7
  call void @llvm.lifetime.end.p0(i64 8, ptr %18) #7
  call void @llvm.lifetime.end.p0(i64 4, ptr %17) #7
  call void @llvm.lifetime.end.p0(i64 4, ptr %16) #7
  call void @llvm.lifetime.end.p0(i64 8, ptr %15) #7
  call void @llvm.lifetime.end.p0(i64 8, ptr %14) #7
  %111 = load ptr, ptr %7, align 8
  ret ptr %111
}