; Function Attrs: nounwind uwtable
define hidden ptr @SDL_CreateCursor_REAL(ptr noundef readonly captures(none) %0, ptr noundef readonly captures(none) %1, i32 noundef %2, i32 noundef %3, i32 noundef %4, i32 noundef %5) local_unnamed_addr #0 {
  %7 = add nsw i32 %2, 7
  %8 = and i32 %7, -8
  %9 = tail call ptr @SDL_CreateSurface_REAL(i32 noundef %8, i32 noundef %3, i32 noundef 372645892) #13
  %.not = icmp eq ptr %9, null
  br i1 %.not, label %35, label %.preheader

.preheader:                                       ; preds = %6
  %10 = icmp sgt i32 %3, 0
  br i1 %10, label %.lr.ph61, label %._crit_edge62

.lr.ph61:                                         ; preds = %.preheader
  %11 = getelementptr inbounds nuw i8, ptr %9, i64 24
  %12 = getelementptr inbounds nuw i8, ptr %9, i64 16
  %13 = icmp sgt i32 %2, 0
  br i1 %13, label %.lr.ph.us, label %._crit_edge62

.lr.ph.us:                                        ; preds = %.lr.ph61, %._crit_edge.us
  %.02860.us = phi ptr [ %.2.us, %._crit_edge.us ], [ %0, %.lr.ph61 ]
  %.02959.us = phi ptr [ %.231.us, %._crit_edge.us ], [ %1, %.lr.ph61 ]
  %.03258.us = phi i8 [ %31, %._crit_edge.us ], [ 0, %.lr.ph61 ]
  %.03557.us = phi i8 [ %30, %._crit_edge.us ], [ 0, %.lr.ph61 ]
  %.04056.us = phi i32 [ %33, %._crit_edge.us ], [ 0, %.lr.ph61 ]
  %14 = load ptr, ptr %11, align 8
  %15 = load i32, ptr %12, align 8
  %16 = mul nsw i32 %15, %.04056.us
  %17 = sext i32 %16 to i64
  %18 = getelementptr inbounds i8, ptr %14, i64 %17
  br label %19

19:                                               ; preds = %.lr.ph.us, %27
  %.152.us = phi ptr [ %.02860.us, %.lr.ph.us ], [ %.2.us, %27 ]
  %.13051.us = phi ptr [ %.02959.us, %.lr.ph.us ], [ %.231.us, %27 ]
  %.13350.us = phi i8 [ %.03258.us, %.lr.ph.us ], [ %31, %27 ]
  %.13649.us = phi i8 [ %.03557.us, %.lr.ph.us ], [ %30, %27 ]
  %.03848.us = phi ptr [ %18, %.lr.ph.us ], [ %.139.us, %27 ]
  %.04147.us = phi i32 [ 0, %.lr.ph.us ], [ %32, %27 ]
  %20 = and i32 %.04147.us, 7
  %21 = icmp eq i32 %20, 0
  br i1 %21, label %22, label %27

22:                                               ; preds = %19
  %23 = getelementptr inbounds nuw i8, ptr %.152.us, i64 1
  %24 = load i8, ptr %.152.us, align 1
  %25 = getelementptr inbounds nuw i8, ptr %.13051.us, i64 1
  %26 = load i8, ptr %.13051.us, align 1
  br label %27

27:                                               ; preds = %22, %19
  %.237.us = phi i8 [ %24, %22 ], [ %.13649.us, %19 ]
  %.234.us = phi i8 [ %26, %22 ], [ %.13350.us, %19 ]
  %.231.us = phi ptr [ %25, %22 ], [ %.13051.us, %19 ]
  %.2.us = phi ptr [ %23, %22 ], [ %.152.us, %19 ]
  %.not44.us = icmp sgt i8 %.237.us, -1
  %28 = select i1 %.not44.us, i32 0, i32 -16777216
  %29 = select i1 %.not44.us, i32 -1, i32 -16777216
  %.not4346.us = icmp slt i8 %.234.us, 0
  %storemerge.us = select i1 %.not4346.us, i32 %29, i32 %28
  %.139.us = getelementptr inbounds nuw i8, ptr %.03848.us, i64 4
  store i32 %storemerge.us, ptr %.03848.us, align 4
  %30 = shl i8 %.237.us, 1
  %31 = shl i8 %.234.us, 1
  %32 = add nuw nsw i32 %.04147.us, 1
  %exitcond.not = icmp eq i32 %32, %8
  br i1 %exitcond.not, label %._crit_edge.us, label %19, !llvm.loop !19

._crit_edge.us:                                   ; preds = %27
  %33 = add nuw nsw i32 %.04056.us, 1
  %exitcond65.not = icmp eq i32 %33, %3
  br i1 %exitcond65.not, label %._crit_edge62, label %.lr.ph.us, !llvm.loop !20

._crit_edge62:                                    ; preds = %._crit_edge.us, %.lr.ph61, %.preheader
  %34 = tail call ptr @SDL_CreateColorCursor_REAL(ptr noundef nonnull %9, i32 noundef %4, i32 noundef %5)
  tail call void @SDL_DestroySurface_REAL(ptr noundef nonnull %9) #13
  br label %35

35:                                               ; preds = %6, %._crit_edge62
  %.0 = phi ptr [ %34, %._crit_edge62 ], [ null, %6 ]
  ret ptr %.0
}